; Function Attrs: nofree nounwind memory(read, inaccessiblemem: none) uwtable
define range(i32 -2147483648, 2147483647) i32 @Abc_NtkFinCheckTypesOk(ptr noundef readonly captures(none) %0) local_unnamed_addr #12 {
  %2 = getelementptr inbounds nuw i8, ptr %0, i64 32
  %3 = load ptr, ptr %2, align 8, !tbaa !24
  %4 = getelementptr i8, ptr %3, i64 4
  %.val = load i32, ptr %4, align 4, !tbaa !25
  %5 = icmp sgt i32 %.val, 0
  br i1 %5, label %.lr.ph, label %.critedge

.lr.ph:                                           ; preds = %1
  %6 = getelementptr i8, ptr %3, i64 8
  %.val11.val = load ptr, ptr %6, align 8, !tbaa !27
  %wide.trip.count = zext nneg i32 %.val to i64
  br label %7

7:                                                ; preds = %.lr.ph, %18
  %indvars.iv = phi i64 [ 0, %.lr.ph ], [ %indvars.iv.next, %18 ]
  %8 = getelementptr inbounds nuw ptr, ptr %.val11.val, i64 %indvars.iv
  %9 = load ptr, ptr %8, align 8, !tbaa !28
  %10 = icmp eq ptr %9, null
  br i1 %10, label %18, label %11

11:                                               ; preds = %7
  %12 = getelementptr i8, ptr %9, i64 20
  %.val12 = load i32, ptr %12, align 4
  %13 = and i32 %.val12, 15
  %.not = icmp eq i32 %13, 7
  br i1 %.not, label %14, label %18

14:                                               ; preds = %11
  %15 = getelementptr i8, ptr %9, i64 56
  %.val13 = load ptr, ptr %15, align 8, !tbaa !29
  %16 = tail call fastcc i32 @Abc_ObjFinGateType(ptr %.val13)
  %17 = icmp eq i32 %16, -100
  br i1 %17, label %.critedge.loopexit.split.loop.exit18, label %18

18:                                               ; preds = %11, %7, %14
  %indvars.iv.next = add nuw nsw i64 %indvars.iv, 1
  %exitcond.not = icmp eq i64 %indvars.iv.next, %wide.trip.count
  br i1 %exitcond.not, label %.critedge, label %7, !llvm.loop !185

.critedge.loopexit.split.loop.exit18:             ; preds = %14
  %19 = trunc nuw nsw i64 %indvars.iv to i32
  br label %.critedge

.critedge:                                        ; preds = %18, %.critedge.loopexit.split.loop.exit18, %1
  %.09 = phi i32 [ 0, %1 ], [ %19, %.critedge.loopexit.split.loop.exit18 ], [ 0, %18 ]
  ret i32 %.09
}